target datalayout = "e-m:e-p270:32:32-p271:32:32-p272:64:64-i64:64-i128:128-f80:128-n8:16:32:64-S128"
target triple = "x86_64-pc-linux-gnu"

%struct.LogicalRepWorker = type { i32, i64, i8, i16, ptr, i32, i32, i32, i32, i8, i64, i8, ptr, i32, i8, i64, i64, i64, i64, i64 }
%struct.ApplySubXactData = type { i32, i32, i32, ptr }

@MyLogicalRepWorker = external global ptr, align 8
@subxact_data = internal global { i32, i32, i32, [4 x i8], ptr } zeroinitializer, align 8
@.str.69 = private unnamed_addr constant [15 x i8] c"%u-%u.subxacts\00", align 1

; Function Attrs: inlinehint nounwind uwtable
define internal void @cleanup_subxact_info() #3 {
  %1 = load ptr, ptr getelementptr inbounds nuw (%struct.ApplySubXactData, ptr @subxact_data, i32 0, i32 3), align 8
  %2 = icmp ne ptr %1, null
  br i1 %2, label %3, label %5

3:                                                ; preds = %0
  %4 = load ptr, ptr getelementptr inbounds nuw (%struct.ApplySubXactData, ptr @subxact_data, i32 0, i32 3), align 8
  call void @pfree(ptr noundef %4)
  br label %5

5:                                                ; preds = %3, %0
  store ptr null, ptr getelementptr inbounds nuw (%struct.ApplySubXactData, ptr @subxact_data, i32 0, i32 3), align 8
  store i32 0, ptr getelementptr inbounds nuw (%struct.ApplySubXactData, ptr @subxact_data, i32 0, i32 2), align 8
  store i32 0, ptr @subxact_data, align 8
  store i32 0, ptr getelementptr inbounds nuw (%struct.ApplySubXactData, ptr @subxact_data, i32 0, i32 1), align 4
  ret void
}

; Function Attrs: inlinehint nounwind uwtable
define internal void @subxact_filename(ptr noundef %0, i32 noundef %1, i32 noundef %2) #3 {
  %4 = alloca ptr, align 8
  %5 = alloca i32, align 4
  %6 = alloca i32, align 4
  store ptr %0, ptr %4, align 8
  store i32 %1, ptr %5, align 4
  store i32 %2, ptr %6, align 4
  %7 = load ptr, ptr %4, align 8
  %8 = load i32, ptr %5, align 4
  %9 = load i32, ptr %6, align 4
  %10 = call i32 (ptr, i64, ptr, ...) @pg_snprintf(ptr noundef %7, i64 noundef 1024, ptr noundef @.str.69, i32 noundef %8, i32 noundef %9)
  ret void
}

; Function Attrs: nounwind uwtable
define internal void @subxact_info_write(i32 noundef %0, i32 noundef %1) #0 {
  %3 = alloca i32, align 4
  %4 = alloca i32, align 4
  %5 = alloca [1024 x i8], align 16
  %6 = alloca i64, align 8
  %7 = alloca ptr, align 8
  %8 = alloca i32, align 4
  store i32 %0, ptr %3, align 4
  store i32 %1, ptr %4, align 4
  call void @llvm.lifetime.start.p0(i64 1024, ptr %5) #12
  call void @llvm.lifetime.start.p0(i64 8, ptr %6) #12
  call void @llvm.lifetime.start.p0(i64 8, ptr %7) #12
  %9 = getelementptr inbounds [1024 x i8], ptr %5, i64 0, i64 0
  %10 = load i32, ptr %3, align 4
  %11 = load i32, ptr %4, align 4
  call void @subxact_filename(ptr noundef %9, i32 noundef %10, i32 noundef %11)
  %12 = load i32, ptr @subxact_data, align 8
  %13 = icmp eq i32 %12, 0
  br i1 %13, label %14, label %19

14:                                               ; preds = %2
  call void @cleanup_subxact_info()
  %15 = load ptr, ptr @MyLogicalRepWorker, align 8
  %16 = getelementptr inbounds nuw %struct.LogicalRepWorker, ptr %15, i32 0, i32 12
  %17 = load ptr, ptr %16, align 8
  %18 = getelementptr inbounds [1024 x i8], ptr %5, i64 0, i64 0
  call void @BufFileDeleteFileSet(ptr noundef %17, ptr noundef %18, i1 noundef zeroext true)
  store i32 1, ptr %8, align 4
  br label %42

19:                                               ; preds = %2
  %20 = load ptr, ptr @MyLogicalRepWorker, align 8
  %21 = getelementptr inbounds nuw %struct.LogicalRepWorker, ptr %20, i32 0, i32 12
  %22 = load ptr, ptr %21, align 8
  %23 = getelementptr inbounds [1024 x i8], ptr %5, i64 0, i64 0
  %24 = call ptr @BufFileOpenFileSet(ptr noundef %22, ptr noundef %23, i32 noundef 2, i1 noundef zeroext true)
  store ptr %24, ptr %7, align 8
  %25 = load ptr, ptr %7, align 8
  %26 = icmp eq ptr %25, null
  br i1 %26, label %27, label %33

27:                                               ; preds = %19
  %28 = load ptr, ptr @MyLogicalRepWorker, align 8
  %29 = getelementptr inbounds nuw %struct.LogicalRepWorker, ptr %28, i32 0, i32 12
  %30 = load ptr, ptr %29, align 8
  %31 = getelementptr inbounds [1024 x i8], ptr %5, i64 0, i64 0
  %32 = call ptr @BufFileCreateFileSet(ptr noundef %30, ptr noundef %31)
  store ptr %32, ptr %7, align 8
  br label %33

33:                                               ; preds = %27, %19
  %34 = load i32, ptr @subxact_data, align 8
  %35 = zext i32 %34 to i64
  %36 = mul i64 16, %35
  store i64 %36, ptr %6, align 8
  %37 = load ptr, ptr %7, align 8
  call void @BufFileWrite(ptr noundef %37, ptr noundef @subxact_data, i64 noundef 4)
  %38 = load ptr, ptr %7, align 8
  %39 = load ptr, ptr getelementptr inbounds nuw (%struct.ApplySubXactData, ptr @subxact_data, i32 0, i32 3), align 8
  %40 = load i64, ptr %6, align 8
  call void @BufFileWrite(ptr noundef %38, ptr noundef %39, i64 noundef %40)
  %41 = load ptr, ptr %7, align 8
  call void @BufFileClose(ptr noundef %41)
  call void @cleanup_subxact_info()
  store i32 0, ptr %8, align 4
  br label %42

42:                                               ; preds = %33, %14
  call void @llvm.lifetime.end.p0(i64 8, ptr %7) #12
  call void @llvm.lifetime.end.p0(i64 8, ptr %6) #12
  call void @llvm.lifetime.end.p0(i64 1024, ptr %5) #12
  %43 = load i32, ptr %8, align 4
  switch i32 %43, label %45 [
    i32 0, label %44
    i32 1, label %44
  ]

44:                                               ; preds = %42, %42
  ret void

45:                                               ; preds = %42
  unreachable
}