; Function Attrs: nounwind uwtable
define internal fastcc void @subxact_info_write(i32 noundef %0, i32 noundef %1) unnamed_addr #0 {
  %3 = alloca [1024 x i8], align 16
  call void @llvm.lifetime.start.p0(i64 1024, ptr nonnull %3) #17
  %4 = call i32 (ptr, i64, ptr, ...) @pg_snprintf(ptr noundef nonnull %3, i64 noundef 1024, ptr noundef nonnull @.str.69, i32 noundef %0, i32 noundef %1) #17
  %5 = load i32, ptr @subxact_data, align 8
  %6 = icmp eq i32 %5, 0
  br i1 %6, label %7, label %13

7:                                                ; preds = %2
  %8 = load ptr, ptr getelementptr inbounds nuw (i8, ptr @subxact_data, i64 16), align 8
  %.not.i = icmp eq ptr %8, null
  br i1 %.not.i, label %cleanup_subxact_info.exit, label %9

9:                                                ; preds = %7
  call void @pfree(ptr noundef nonnull %8) #17
  br label %cleanup_subxact_info.exit

cleanup_subxact_info.exit:                        ; preds = %7, %9
  store ptr null, ptr getelementptr inbounds nuw (i8, ptr @subxact_data, i64 16), align 8
  store i32 0, ptr getelementptr inbounds nuw (i8, ptr @subxact_data, i64 8), align 8
  store i32 0, ptr @subxact_data, align 8
  store i32 0, ptr getelementptr inbounds nuw (i8, ptr @subxact_data, i64 4), align 4
  %10 = load ptr, ptr @MyLogicalRepWorker, align 8
  %11 = getelementptr inbounds nuw i8, ptr %10, i64 72
  %12 = load ptr, ptr %11, align 8
  call void @BufFileDeleteFileSet(ptr noundef %12, ptr noundef nonnull %3, i1 noundef zeroext true) #17
  br label %31

13:                                               ; preds = %2
  %14 = load ptr, ptr @MyLogicalRepWorker, align 8
  %15 = getelementptr inbounds nuw i8, ptr %14, i64 72
  %16 = load ptr, ptr %15, align 8
  %17 = call ptr @BufFileOpenFileSet(ptr noundef %16, ptr noundef nonnull %3, i32 noundef 2, i1 noundef zeroext true) #17
  %18 = icmp eq ptr %17, null
  br i1 %18, label %19, label %24

19:                                               ; preds = %13
  %20 = load ptr, ptr @MyLogicalRepWorker, align 8
  %21 = getelementptr inbounds nuw i8, ptr %20, i64 72
  %22 = load ptr, ptr %21, align 8
  %23 = call ptr @BufFileCreateFileSet(ptr noundef %22, ptr noundef nonnull %3) #17
  br label %24

24:                                               ; preds = %19, %13
  %.0 = phi ptr [ %23, %19 ], [ %17, %13 ]
  %25 = load i32, ptr @subxact_data, align 8
  %26 = zext i32 %25 to i64
  %27 = shl nuw nsw i64 %26, 4
  call void @BufFileWrite(ptr noundef %.0, ptr noundef nonnull @subxact_data, i64 noundef 4) #17
  %28 = load ptr, ptr getelementptr inbounds nuw (i8, ptr @subxact_data, i64 16), align 8
  call void @BufFileWrite(ptr noundef %.0, ptr noundef %28, i64 noundef %27) #17
  call void @BufFileClose(ptr noundef %.0) #17
  %29 = load ptr, ptr getelementptr inbounds nuw (i8, ptr @subxact_data, i64 16), align 8
  %.not.i7 = icmp eq ptr %29, null
  br i1 %.not.i7, label %cleanup_subxact_info.exit8, label %30

30:                                               ; preds = %24
  call void @pfree(ptr noundef nonnull %29) #17
  br label %cleanup_subxact_info.exit8

cleanup_subxact_info.exit8:                       ; preds = %24, %30
  store ptr null, ptr getelementptr inbounds nuw (i8, ptr @subxact_data, i64 16), align 8
  store i32 0, ptr getelementptr inbounds nuw (i8, ptr @subxact_data, i64 8), align 8
  store i32 0, ptr @subxact_data, align 8
  store i32 0, ptr getelementptr inbounds nuw (i8, ptr @subxact_data, i64 4), align 4
  br label %31

31:                                               ; preds = %cleanup_subxact_info.exit8, %cleanup_subxact_info.exit
  call void @llvm.lifetime.end.p0(i64 1024, ptr nonnull %3) #17
  ret void
}